; Function Attrs: nounwind sspstrong uwtable
define internal void @cpu_common_realizefn(ptr noundef %0, ptr readnone captures(none) %1) #0 {
  %3 = tail call ptr @qdev_get_machine() #12
  %4 = tail call ptr @object_dynamic_cast(ptr noundef %3, ptr noundef nonnull @.str.15) #12
  %.not = icmp eq ptr %4, null
  br i1 %.not, label %12, label %5

5:                                                ; preds = %2
  %6 = tail call ptr @object_get_class(ptr noundef %3) #12
  %7 = tail call ptr @object_class_dynamic_cast_assert(ptr noundef %6, ptr noundef nonnull @.str.15, ptr noundef nonnull @.str.16, i32 noundef 24, ptr noundef nonnull @__func__.MACHINE_GET_CLASS) #12
  %.not9 = icmp eq ptr %7, null
  br i1 %.not9, label %12, label %8

8:                                                ; preds = %5
  %9 = getelementptr inbounds nuw i8, ptr %7, i64 273
  %10 = load i8, ptr %9, align 1, !range !10, !noundef !11
  %11 = getelementptr inbounds nuw i8, ptr %0, i64 752
  store i8 %10, ptr %11, align 16
  br label %12

12:                                               ; preds = %5, %8, %2
  %13 = getelementptr inbounds nuw i8, ptr %0, i64 72
  %14 = load i32, ptr %13, align 8
  %.not10 = icmp eq i32 %14, 0
  br i1 %.not10, label %16, label %15

15:                                               ; preds = %12
  tail call void @cpu_synchronize_post_init(ptr noundef nonnull %0) #12
  tail call void @cpu_resume(ptr noundef nonnull %0) #12
  br label %16

16:                                               ; preds = %15, %12
  ret void
}